; ModuleID = '29/62.c'
source_filename = "29/62.c"
target datalayout = "e-m:e-p270:32:32-p271:32:32-p272:64:64-i64:64-f80:128-n8:16:32:64-S128"
target triple = "x86_64-pc-linux-gnu"

@.str = private unnamed_addr constant [3 x i8] c"%d\00", align 1
@.str.1 = private unnamed_addr constant [7 x i8] c"%.3lf\0A\00", align 1

; Function Attrs: noinline nounwind uwtable
define dso_local i32 @main() #0 {
  %1 = alloca i32, align 4
  %2 = alloca i32, align 4
  %3 = alloca i32, align 4
  %4 = alloca i32, align 4
  %5 = alloca i32, align 4
  %6 = alloca i32, align 4
  %7 = alloca i32, align 4
  %8 = alloca [1000 x double], align 16
  %9 = alloca [1000 x i32], align 16
  %10 = alloca [1000 x i32], align 16
  %11 = alloca [1000 x double], align 16
  store i32 0, i32* %1, align 4
  %12 = getelementptr inbounds [1000 x i32], [1000 x i32]* %10, i64 0, i64 0
  store i32 1, i32* %12, align 16
  %13 = getelementptr inbounds [1000 x i32], [1000 x i32]* %10, i64 0, i64 1
  store i32 2, i32* %13, align 4
  store i32 2, i32* %7, align 4
  br label %14

14:                                               ; preds = %32, %0
  %15 = load i32, i32* %7, align 4
  %16 = icmp slt i32 %15, 1000
  br i1 %16, label %17, label %35

17:                                               ; preds = %14
  %18 = load i32, i32* %7, align 4
  %19 = sub nsw i32 %18, 1
  %20 = sext i32 %19 to i64
  %21 = getelementptr inbounds [1000 x i32], [1000 x i32]* %10, i64 0, i64 %20
  %22 = load i32, i32* %21, align 4
  %23 = load i32, i32* %7, align 4
  %24 = sub nsw i32 %23, 2
  %25 = sext i32 %24 to i64
  %26 = getelementptr inbounds [1000 x i32], [1000 x i32]* %10, i64 0, i64 %25
  %27 = load i32, i32* %26, align 4
  %28 = add nsw i32 %22, %27
  %29 = load i32, i32* %7, align 4
  %30 = sext i32 %29 to i64
  %31 = getelementptr inbounds [1000 x i32], [1000 x i32]* %10, i64 0, i64 %30
  store i32 %28, i32* %31, align 4
  br label %32

32:                                               ; preds = %17
  %33 = load i32, i32* %7, align 4
  %34 = add nsw i32 %33, 1
  store i32 %34, i32* %7, align 4
  br label %14

35:                                               ; preds = %14
  %36 = call i32 (i8*, ...) @__isoc99_scanf(i8* getelementptr inbounds ([3 x i8], [3 x i8]* @.str, i64 0, i64 0), i32* %2)
  store i32 0, i32* %4, align 4
  br label %37

37:                                               ; preds = %45, %35
  %38 = load i32, i32* %4, align 4
  %39 = load i32, i32* %2, align 4
  %40 = icmp slt i32 %38, %39
  br i1 %40, label %41, label %48

41:                                               ; preds = %37
  %42 = load i32, i32* %4, align 4
  %43 = sext i32 %42 to i64
  %44 = getelementptr inbounds [1000 x double], [1000 x double]* %8, i64 0, i64 %43
  store double 0.000000e+00, double* %44, align 8
  br label %45

45:                                               ; preds = %41
  %46 = load i32, i32* %4, align 4
  %47 = add nsw i32 %46, 1
  store i32 %47, i32* %4, align 4
  br label %37

48:                                               ; preds = %37
  store i32 0, i32* %3, align 4
  br label %49

49:                                               ; preds = %98, %48
  %50 = load i32, i32* %3, align 4
  %51 = load i32, i32* %2, align 4
  %52 = icmp slt i32 %50, %51
  br i1 %52, label %53, label %101

53:                                               ; preds = %49
  %54 = load i32, i32* %3, align 4
  %55 = sext i32 %54 to i64
  %56 = getelementptr inbounds [1000 x i32], [1000 x i32]* %9, i64 0, i64 %55
  %57 = call i32 (i8*, ...) @__isoc99_scanf(i8* getelementptr inbounds ([3 x i8], [3 x i8]* @.str, i64 0, i64 0), i32* %56)
  store i32 0, i32* %5, align 4
  br label %58

58:                                               ; preds = %94, %53
  %59 = load i32, i32* %5, align 4
  %60 = load i32, i32* %3, align 4
  %61 = sext i32 %60 to i64
  %62 = getelementptr inbounds [1000 x i32], [1000 x i32]* %9, i64 0, i64 %61
  %63 = load i32, i32* %62, align 4
  %64 = icmp slt i32 %59, %63
  br i1 %64, label %65, label %97

65:                                               ; preds = %58
  %66 = load i32, i32* %5, align 4
  %67 = add nsw i32 %66, 1
  %68 = sext i32 %67 to i64
  %69 = getelementptr inbounds [1000 x i32], [1000 x i32]* %10, i64 0, i64 %68
  %70 = load i32, i32* %69, align 4
  %71 = sitofp i32 %70 to double
  %72 = fmul double 1.000000e+00, %71
  %73 = load i32, i32* %5, align 4
  %74 = sext i32 %73 to i64
  %75 = getelementptr inbounds [1000 x i32], [1000 x i32]* %10, i64 0, i64 %74
  %76 = load i32, i32* %75, align 4
  %77 = sitofp i32 %76 to double
  %78 = fdiv double %72, %77
  %79 = load i32, i32* %5, align 4
  %80 = sext i32 %79 to i64
  %81 = getelementptr inbounds [1000 x double], [1000 x double]* %11, i64 0, i64 %80
  store double %78, double* %81, align 8
  %82 = load i32, i32* %3, align 4
  %83 = sext i32 %82 to i64
  %84 = getelementptr inbounds [1000 x double], [1000 x double]* %8, i64 0, i64 %83
  %85 = load double, double* %84, align 8
  %86 = load i32, i32* %5, align 4
  %87 = sext i32 %86 to i64
  %88 = getelementptr inbounds [1000 x double], [1000 x double]* %11, i64 0, i64 %87
  %89 = load double, double* %88, align 8
  %90 = fadd double %85, %89
  %91 = load i32, i32* %3, align 4
  %92 = sext i32 %91 to i64
  %93 = getelementptr inbounds [1000 x double], [1000 x double]* %8, i64 0, i64 %92
  store double %90, double* %93, align 8
  br label %94

94:                                               ; preds = %65
  %95 = load i32, i32* %5, align 4
  %96 = add nsw i32 %95, 1
  store i32 %96, i32* %5, align 4
  br label %58

97:                                               ; preds = %58
  br label %98

98:                                               ; preds = %97
  %99 = load i32, i32* %3, align 4
  %100 = add nsw i32 %99, 1
  store i32 %100, i32* %3, align 4
  br label %49

101:                                              ; preds = %49
  store i32 0, i32* %6, align 4
  br label %102

102:                                              ; preds = %112, %101
  %103 = load i32, i32* %6, align 4
  %104 = load i32, i32* %2, align 4
  %105 = icmp slt i32 %103, %104
  br i1 %105, label %106, label %115

106:                                              ; preds = %102
  %107 = load i32, i32* %6, align 4
  %108 = sext i32 %107 to i64
  %109 = getelementptr inbounds [1000 x double], [1000 x double]* %8, i64 0, i64 %108
  %110 = load double, double* %109, align 8
  %111 = call i32 (i8*, ...) @printf(i8* getelementptr inbounds ([7 x i8], [7 x i8]* @.str.1, i64 0, i64 0), double %110)
  br label %112

112:                                              ; preds = %106
  %113 = load i32, i32* %6, align 4
  %114 = add nsw i32 %113, 1
  store i32 %114, i32* %6, align 4
  br label %102

115:                                              ; preds = %102
  ret i32 0
}

declare dso_local i32 @__isoc99_scanf(i8*, ...) #1

declare dso_local i32 @printf(i8*, ...) #1


!llvm.module.flags = !{!0}
!llvm.ident = !{!1}

!0 = !{i32 1, !"wchar_size", i32 4}
!1 = !{!"clang version 10.0.0-4ubuntu1 "}
